target datalayout = "e-m:e-p270:32:32-p271:32:32-p272:64:64-i64:64-i128:128-f80:128-n8:16:32:64-S128"
target triple = "x86_64-pc-linux-gnu"

@.str.1 = private unnamed_addr constant [8 x i8] c"inval.c\00", align 1
@.str.2 = private unnamed_addr constant [36 x i8] c"replaying commit with %d messages%s\00", align 1
@.str.3 = private unnamed_addr constant [32 x i8] c" and relcache file invalidation\00", align 1
@.str.4 = private unnamed_addr constant [1 x i8] zeroinitializer, align 1
@__func__.ProcessCommittedInvalidationMessages = private unnamed_addr constant [37 x i8] c"ProcessCommittedInvalidationMessages\00", align 1
@.str.5 = private unnamed_addr constant [45 x i8] c"removing relcache init files for database %u\00", align 1
@DatabasePath = external global ptr, align 8

; Function Attrs: nounwind uwtable
define dso_local void @ProcessCommittedInvalidationMessages(ptr noundef %0, i32 noundef %1, i1 noundef zeroext %2, i32 noundef %3, i32 noundef %4) #0 {
  %6 = alloca ptr, align 8
  %7 = alloca i32, align 4
  %8 = alloca i8, align 1
  %9 = alloca i32, align 4
  %10 = alloca i32, align 4
  store ptr %0, ptr %6, align 8
  store i32 %1, ptr %7, align 4
  %11 = zext i1 %2 to i8
  store i8 %11, ptr %8, align 1
  store i32 %3, ptr %9, align 4
  store i32 %4, ptr %10, align 4
  %12 = load i32, ptr %7, align 4
  %13 = icmp sle i32 %12, 0
  br i1 %13, label %14, label %15

14:                                               ; preds = %5
  br label %60

15:                                               ; preds = %5
  br label %16

16:                                               ; preds = %15
  br i1 false, label %17, label %19

17:                                               ; preds = %16
  %18 = call zeroext i1 @errstart_cold(i32 noundef 11, ptr noundef null) #8
  br i1 %18, label %21, label %27

19:                                               ; preds = %16
  %20 = call zeroext i1 @errstart(i32 noundef 11, ptr noundef null)
  br i1 %20, label %21, label %27

21:                                               ; preds = %19, %17
  %22 = load i32, ptr %7, align 4
  %23 = load i8, ptr %8, align 1, !range !4, !noundef !5
  %24 = trunc i8 %23 to i1
  %25 = select i1 %24, ptr @.str.3, ptr @.str.4
  %26 = call i32 (ptr, ...) @errmsg_internal(ptr noundef @.str.2, i32 noundef %22, ptr noundef %25)
  call void @errfinish(ptr noundef @.str.1, i32 noundef 1071, ptr noundef @__func__.ProcessCommittedInvalidationMessages)
  br label %27

27:                                               ; preds = %21, %19, %17
  br label %28

28:                                               ; preds = %27
  %29 = load i8, ptr %8, align 1, !range !4, !noundef !5
  %30 = trunc i8 %29 to i1
  br i1 %30, label %31, label %54

31:                                               ; preds = %28
  br label %32

32:                                               ; preds = %31
  br i1 false, label %33, label %35

33:                                               ; preds = %32
  %34 = call zeroext i1 @errstart_cold(i32 noundef 11, ptr noundef null) #8
  br i1 %34, label %37, label %40

35:                                               ; preds = %32
  %36 = call zeroext i1 @errstart(i32 noundef 11, ptr noundef null)
  br i1 %36, label %37, label %40

37:                                               ; preds = %35, %33
  %38 = load i32, ptr %9, align 4
  %39 = call i32 (ptr, ...) @errmsg_internal(ptr noundef @.str.5, i32 noundef %38)
  call void @errfinish(ptr noundef @.str.1, i32 noundef 1075, ptr noundef @__func__.ProcessCommittedInvalidationMessages)
  br label %40

40:                                               ; preds = %37, %35, %33
  br label %41

41:                                               ; preds = %40
  %42 = load i32, ptr %9, align 4
  %43 = icmp ne i32 %42, 0
  br i1 %43, label %44, label %48

44:                                               ; preds = %41
  %45 = load i32, ptr %9, align 4
  %46 = load i32, ptr %10, align 4
  %47 = call ptr @GetDatabasePath(i32 noundef %45, i32 noundef %46)
  store ptr %47, ptr @DatabasePath, align 8
  br label %48

48:                                               ; preds = %44, %41
  call void @RelationCacheInitFilePreInvalidate()
  %49 = load i32, ptr %9, align 4
  %50 = icmp ne i32 %49, 0
  br i1 %50, label %51, label %53

51:                                               ; preds = %48
  %52 = load ptr, ptr @DatabasePath, align 8
  call void @pfree(ptr noundef %52)
  store ptr null, ptr @DatabasePath, align 8
  br label %53

53:                                               ; preds = %51, %48
  br label %54

54:                                               ; preds = %53, %28
  %55 = load ptr, ptr %6, align 8
  %56 = load i32, ptr %7, align 4
  call void @SendSharedInvalidMessages(ptr noundef %55, i32 noundef %56)
  %57 = load i8, ptr %8, align 1, !range !4, !noundef !5
  %58 = trunc i8 %57 to i1
  br i1 %58, label %59, label %60

59:                                               ; preds = %54
  call void @RelationCacheInitFilePostInvalidate()
  br label %60

60:                                               ; preds = %14, %59, %54
  ret void
}