; Function Attrs: nounwind uwtable
define dso_local void @ProcessCommittedInvalidationMessages(ptr noundef %0, i32 noundef %1, i1 noundef zeroext %2, i32 noundef %3, i32 noundef %4) local_unnamed_addr #0 {
  %6 = icmp slt i32 %1, 1
  br i1 %6, label %22, label %7

7:                                                ; preds = %5
  %8 = tail call zeroext i1 @errstart(i32 noundef 11, ptr noundef null) #7
  br i1 %8, label %9, label %12

9:                                                ; preds = %7
  %10 = select i1 %2, ptr @.str.3, ptr @.str.4
  %11 = tail call i32 (ptr, ...) @errmsg_internal(ptr noundef nonnull @.str.2, i32 noundef %1, ptr noundef nonnull %10) #7
  tail call void @errfinish(ptr noundef nonnull @.str.1, i32 noundef 1071, ptr noundef nonnull @__func__.ProcessCommittedInvalidationMessages) #7
  br label %12

12:                                               ; preds = %7, %9
  br i1 %2, label %13, label %.critedge13

13:                                               ; preds = %12
  %14 = tail call zeroext i1 @errstart(i32 noundef 11, ptr noundef null) #7
  br i1 %14, label %15, label %17

15:                                               ; preds = %13
  %16 = tail call i32 (ptr, ...) @errmsg_internal(ptr noundef nonnull @.str.5, i32 noundef %3) #7
  tail call void @errfinish(ptr noundef nonnull @.str.1, i32 noundef 1075, ptr noundef nonnull @__func__.ProcessCommittedInvalidationMessages) #7
  br label %17

17:                                               ; preds = %13, %15
  %.not = icmp eq i32 %3, 0
  br i1 %.not, label %.critedge, label %18

18:                                               ; preds = %17
  %19 = tail call ptr @GetDatabasePath(i32 noundef %3, i32 noundef %4) #7
  store ptr %19, ptr @DatabasePath, align 8
  tail call void @RelationCacheInitFilePreInvalidate() #7
  %20 = load ptr, ptr @DatabasePath, align 8
  tail call void @pfree(ptr noundef %20) #7
  store ptr null, ptr @DatabasePath, align 8
  br label %21

.critedge:                                        ; preds = %17
  tail call void @RelationCacheInitFilePreInvalidate() #7
  br label %21

21:                                               ; preds = %18, %.critedge
  tail call void @SendSharedInvalidMessages(ptr noundef %0, i32 noundef %1) #7
  tail call void @RelationCacheInitFilePostInvalidate() #7
  br label %22

.critedge13:                                      ; preds = %12
  tail call void @SendSharedInvalidMessages(ptr noundef %0, i32 noundef %1) #7
  br label %22

22:                                               ; preds = %.critedge13, %5, %21
  ret void
}